; ModuleID = 'source-C-CXX/25/427.c'
source_filename = "source-C-CXX/25/427.c"
target datalayout = "e-m:e-p270:32:32-p271:32:32-p272:64:64-i64:64-f80:128-n8:16:32:64-S128"
target triple = "x86_64-pc-linux-gnu"

%struct._IO_FILE = type { i32, i8*, i8*, i8*, i8*, i8*, i8*, i8*, i8*, i8*, i8*, i8*, %struct._IO_marker*, %struct._IO_FILE*, i32, i32, i64, i16, i8, [1 x i8], i8*, i64, %struct._IO_codecvt*, %struct._IO_wide_data*, %struct._IO_FILE*, i8*, i64, i32, [20 x i8] }
%struct._IO_marker = type opaque
%struct._IO_codecvt = type opaque
%struct._IO_wide_data = type opaque

@stdin = external local_unnamed_addr global %struct._IO_FILE*, align 8

; Function Attrs: nounwind sspstrong uwtable
define dso_local i32 @main() local_unnamed_addr #0 {
  %1 = alloca [1000 x i8], align 16
  %2 = getelementptr inbounds [1000 x i8], [1000 x i8]* %1, i64 0, i64 0
  call void @llvm.lifetime.start.p0i8(i64 1000, i8* nonnull %2) #5
  %3 = call i32 (i8*, ...) bitcast (i32 (...)* @gets to i32 (i8*, ...)*)(i8* nonnull %2) #5
  br label %4

4:                                                ; preds = %14, %0
  %5 = phi i8* [ %2, %0 ], [ %15, %14 ]
  %6 = load i8, i8* %5, align 1, !tbaa !5
  switch i8 %6, label %11 [
    i8 0, label %16
    i8 32, label %7
  ]

7:                                                ; preds = %4
  %8 = getelementptr inbounds i8, i8* %5, i64 -1
  %9 = load i8, i8* %8, align 1, !tbaa !5
  %10 = icmp eq i8 %9, 32
  br i1 %10, label %14, label %11

11:                                               ; preds = %4, %7
  %12 = sext i8 %6 to i32
  %13 = call i32 @putchar(i32 %12)
  br label %14

14:                                               ; preds = %7, %11
  %15 = getelementptr inbounds i8, i8* %5, i64 1
  br label %4, !llvm.loop !8

16:                                               ; preds = %4
  %17 = call i32 @putchar(i32 10)
  %18 = load %struct._IO_FILE*, %struct._IO_FILE** @stdin, align 8, !tbaa !10
  %19 = call i32 @getc(%struct._IO_FILE* %18) #5
  call void @llvm.lifetime.end.p0i8(i64 1000, i8* nonnull %2) #5
  ret i32 0
}

; Function Attrs: argmemonly mustprogress nofree nosync nounwind willreturn
declare void @llvm.lifetime.start.p0i8(i64 immarg, i8* nocapture) #1

declare i32 @gets(...) local_unnamed_addr #2

; Function Attrs: argmemonly mustprogress nofree nosync nounwind willreturn
declare void @llvm.lifetime.end.p0i8(i64 immarg, i8* nocapture) #1

; Function Attrs: nofree nounwind
declare noundef i32 @getc(%struct._IO_FILE* nocapture noundef) local_unnamed_addr #3

; Function Attrs: nofree nounwind
declare noundef i32 @putchar(i32 noundef) local_unnamed_addr #4


!llvm.module.flags = !{!0, !1, !2, !3}
!llvm.ident = !{!4}

!0 = !{i32 1, !"wchar_size", i32 4}
!1 = !{i32 7, !"PIC Level", i32 2}
!2 = !{i32 7, !"PIE Level", i32 2}
!3 = !{i32 7, !"uwtable", i32 1}
!4 = !{!"clang version 13.0.0"}
!5 = !{!6, !6, i64 0}
!6 = !{!"omnipotent char", !7, i64 0}
!7 = !{!"Simple C/C++ TBAA"}
!8 = distinct !{!8, !9}
!9 = !{!"llvm.loop.mustprogress"}
!10 = !{!11, !11, i64 0}
!11 = !{!"any pointer", !6, i64 0}
